; Function Attrs: uwtable
define void @_ZN8LightGBM7Network17ReduceScatterRingEPciiPKiS3_S1_iRKPFvPKcS1_iiE(ptr noundef %0, i32 noundef %1, i32 noundef %2, ptr noundef readonly captures(none) %3, ptr noundef readonly captures(none) %4, ptr noundef %5, i32 noundef %6, ptr noundef nonnull readonly align 8 captures(none) dereferenceable(8) %7) local_unnamed_addr #11 align 2 {
  %9 = tail call align 4 ptr @llvm.threadlocal.address.p0(ptr align 4 @_ZN8LightGBM7Network5rank_E)
  %10 = load i32, ptr %9, align 4, !tbaa !69
  %11 = add nsw i32 %10, 1
  %12 = tail call align 4 ptr @llvm.threadlocal.address.p0(ptr align 4 @_ZN8LightGBM7Network13num_machines_E)
  %13 = load i32, ptr %12, align 4, !tbaa !69
  %14 = srem i32 %11, %13
  %15 = add i32 %13, -1
  %16 = add i32 %15, %10
  %17 = srem i32 %16, %13
  %18 = icmp sgt i32 %13, 1
  br i1 %18, label %.lr.ph, label %._crit_edge

.lr.ph:                                           ; preds = %8
  %19 = add i32 %15, %17
  %20 = srem i32 %19, %13
  %21 = tail call align 8 ptr @llvm.threadlocal.address.p0(ptr align 8 @_ZN8LightGBM7Network8linkers_E)
  br label %31

._crit_edge.loopexit:                             ; preds = %31
  %.pre = load i32, ptr %9, align 4, !tbaa !69
  br label %._crit_edge

._crit_edge:                                      ; preds = %._crit_edge.loopexit, %8
  %22 = phi i32 [ %.pre, %._crit_edge.loopexit ], [ %10, %8 ]
  %23 = sext i32 %22 to i64
  %24 = getelementptr inbounds i32, ptr %3, i64 %23
  %25 = load i32, ptr %24, align 4, !tbaa !69
  %26 = sext i32 %25 to i64
  %27 = getelementptr inbounds i8, ptr %0, i64 %26
  %28 = getelementptr inbounds i32, ptr %4, i64 %23
  %29 = load i32, ptr %28, align 4, !tbaa !69
  %30 = sext i32 %29 to i64
  tail call void @llvm.memcpy.p0.p0.i64(ptr align 1 %5, ptr align 1 %27, i64 %30, i1 false)
  ret void

31:                                               ; preds = %.lr.ph, %31
  %.031 = phi i32 [ 1, %.lr.ph ], [ %56, %31 ]
  %.02730 = phi i32 [ %20, %.lr.ph ], [ %55, %31 ]
  %.02829 = phi i32 [ %17, %.lr.ph ], [ %52, %31 ]
  tail call void @_ZTHN8LightGBM7Network8linkers_E()
  %32 = load ptr, ptr %21, align 8, !tbaa !4
  %33 = sext i32 %.02829 to i64
  %34 = getelementptr inbounds i32, ptr %3, i64 %33
  %35 = load i32, ptr %34, align 4, !tbaa !69
  %36 = sext i32 %35 to i64
  %37 = getelementptr inbounds i8, ptr %0, i64 %36
  %38 = getelementptr inbounds i32, ptr %4, i64 %33
  %39 = load i32, ptr %38, align 4, !tbaa !69
  %40 = sext i32 %.02730 to i64
  %41 = getelementptr inbounds i32, ptr %4, i64 %40
  %42 = load i32, ptr %41, align 4, !tbaa !69
  tail call void @_ZN8LightGBM7Linkers8SendRecvEiPciiS1_i(ptr noundef nonnull align 8 dereferenceable(304) %32, i32 noundef %14, ptr noundef %37, i32 noundef %39, i32 noundef %17, ptr noundef %5, i32 noundef %42)
  %43 = load ptr, ptr %7, align 8, !tbaa !119
  %44 = getelementptr inbounds i32, ptr %3, i64 %40
  %45 = load i32, ptr %44, align 4, !tbaa !69
  %46 = sext i32 %45 to i64
  %47 = getelementptr inbounds i8, ptr %0, i64 %46
  %48 = load i32, ptr %41, align 4, !tbaa !69
  tail call void %43(ptr noundef %5, ptr noundef %47, i32 noundef %2, i32 noundef %48)
  %49 = add nsw i32 %.02829, -1
  %50 = load i32, ptr %12, align 4, !tbaa !69
  %51 = add nsw i32 %49, %50
  %52 = srem i32 %51, %50
  %53 = add nsw i32 %.02730, -1
  %54 = add nsw i32 %53, %50
  %55 = srem i32 %54, %50
  %56 = add nuw nsw i32 %.031, 1
  %57 = icmp slt i32 %56, %50
  br i1 %57, label %31, label %._crit_edge.loopexit, !llvm.loop !132
}